target datalayout = "e-m:e-p270:32:32-p271:32:32-p272:64:64-i64:64-i128:128-f80:128-n8:16:32:64-S128"
target triple = "x86_64-pc-linux-gnu"

%struct.SDL_GPUDevice = type { ptr, ptr, ptr, ptr, ptr, ptr, ptr, ptr, ptr, ptr, ptr, ptr, ptr, ptr, ptr, ptr, ptr, ptr, ptr, ptr, ptr, ptr, ptr, ptr, ptr, ptr, ptr, ptr, ptr, ptr, ptr, ptr, ptr, ptr, ptr, ptr, ptr, ptr, ptr, ptr, ptr, ptr, ptr, ptr, ptr, ptr, ptr, ptr, ptr, ptr, ptr, ptr, ptr, ptr, ptr, ptr, ptr, ptr, ptr, ptr, ptr, ptr, ptr, ptr, ptr, ptr, ptr, ptr, ptr, ptr, ptr, ptr, ptr, ptr, ptr, ptr, ptr, ptr, ptr, ptr, ptr, ptr, ptr, ptr, ptr, i32, i8 }
%struct.CommandBufferCommonHeader = type { ptr, %struct.RenderPass, i8, %struct.Pass, i8, %struct.Pass, i8, i8, i8 }
%struct.RenderPass = type { ptr, i8, [4 x ptr], i32, ptr }
%struct.Pass = type { ptr, i8 }
%struct.SDL_GPUTransferBufferLocation = type { ptr, i32 }
%struct.SDL_GPUBufferRegion = type { ptr, i32, i32 }

@.str.4 = private unnamed_addr constant [26 x i8] c"Parameter '%s' is invalid\00", align 1
@.str.8 = private unnamed_addr constant [103 x i8] c"generated/home/dtcxzyw/WorkSpace/Projects/compilers/llvm-opt-benchmark/bench/sdl/SDL/src/gpu/SDL_gpu.c\00", align 1
@.str.286 = private unnamed_addr constant [10 x i8] c"copy_pass\00", align 1
@.str.287 = private unnamed_addr constant [7 x i8] c"source\00", align 1
@.str.288 = private unnamed_addr constant [12 x i8] c"destination\00", align 1
@SDL_UploadToGPUBuffer_REAL.sdl_assert_data = internal global { i8, [3 x i8], i32, ptr, ptr, i32, [4 x i8], ptr, ptr } { i8 0, [3 x i8] zeroinitializer, i32 0, ptr @.str.290, ptr null, i32 0, [4 x i8] zeroinitializer, ptr null, ptr null }, align 8
@__func__.SDL_UploadToGPUBuffer_REAL = private unnamed_addr constant [27 x i8] c"SDL_UploadToGPUBuffer_REAL\00", align 1
@SDL_UploadToGPUBuffer_REAL.sdl_assert_data.297 = internal global { i8, [3 x i8], i32, ptr, ptr, i32, [4 x i8], ptr, ptr } { i8 0, [3 x i8] zeroinitializer, i32 0, ptr @.str.293, ptr null, i32 0, [4 x i8] zeroinitializer, ptr null, ptr null }, align 8
@SDL_UploadToGPUBuffer_REAL.sdl_assert_data.299 = internal global { i8, [3 x i8], i32, ptr, ptr, i32, [4 x i8], ptr, ptr } { i8 0, [3 x i8] zeroinitializer, i32 0, ptr @.str.300, ptr null, i32 0, [4 x i8] zeroinitializer, ptr null, ptr null }, align 8

; Function Attrs: nounwind uwtable
define hidden void @SDL_UploadToGPUBuffer_REAL(ptr noundef %0, ptr noundef %1, ptr noundef %2, i1 noundef zeroext %3) #0 {
  %5 = alloca ptr, align 8
  %6 = alloca ptr, align 8
  %7 = alloca ptr, align 8
  %8 = alloca i8, align 1
  %9 = alloca i32, align 4
  %10 = alloca i32, align 4
  %11 = alloca i32, align 4
  %12 = alloca i32, align 4
  store ptr %0, ptr %5, align 8
  store ptr %1, ptr %6, align 8
  store ptr %2, ptr %7, align 8
  %13 = zext i1 %3 to i8
  store i8 %13, ptr %8, align 1
  %14 = load ptr, ptr %5, align 8
  %15 = icmp eq ptr %14, null
  br i1 %15, label %16, label %18

16:                                               ; preds = %4
  %17 = call zeroext i1 (ptr, ...) @SDL_SetError_REAL(ptr noundef @.str.4, ptr noundef @.str.286)
  br label %119

18:                                               ; preds = %4
  %19 = load ptr, ptr %6, align 8
  %20 = icmp eq ptr %19, null
  br i1 %20, label %21, label %23

21:                                               ; preds = %18
  %22 = call zeroext i1 (ptr, ...) @SDL_SetError_REAL(ptr noundef @.str.4, ptr noundef @.str.287)
  br label %119

23:                                               ; preds = %18
  %24 = load ptr, ptr %7, align 8
  %25 = icmp eq ptr %24, null
  br i1 %25, label %26, label %28

26:                                               ; preds = %23
  %27 = call zeroext i1 (ptr, ...) @SDL_SetError_REAL(ptr noundef @.str.4, ptr noundef @.str.288)
  br label %119

28:                                               ; preds = %23
  %29 = load ptr, ptr %5, align 8
  %30 = getelementptr inbounds nuw %struct.Pass, ptr %29, i32 0, i32 0
  %31 = load ptr, ptr %30, align 8
  %32 = getelementptr inbounds nuw %struct.CommandBufferCommonHeader, ptr %31, i32 0, i32 0
  %33 = load ptr, ptr %32, align 8
  %34 = getelementptr inbounds nuw %struct.SDL_GPUDevice, ptr %33, i32 0, i32 86
  %35 = load i8, ptr %34, align 4, !range !5, !noundef !6
  %36 = trunc i8 %35 to i1
  br i1 %36, label %37, label %104

37:                                               ; preds = %28
  %38 = load ptr, ptr %5, align 8
  %39 = getelementptr inbounds nuw %struct.Pass, ptr %38, i32 0, i32 1
  %40 = load i8, ptr %39, align 8, !range !5, !noundef !6
  %41 = trunc i8 %40 to i1
  br i1 %41, label %59, label %42

42:                                               ; preds = %37
  br label %43

43:                                               ; preds = %42
  br label %44

44:                                               ; preds = %43, %55
  call void @llvm.lifetime.start.p0(i64 4, ptr %9) #6
  %45 = call i32 @SDL_ReportAssertion_REAL(ptr noundef @SDL_UploadToGPUBuffer_REAL.sdl_assert_data, ptr noundef @__func__.SDL_UploadToGPUBuffer_REAL, ptr noundef @.str.8, i32 noundef 2506)
  store i32 %45, ptr %9, align 4
  %46 = load i32, ptr %9, align 4
  %47 = icmp eq i32 %46, 0
  br i1 %47, label %48, label %49

48:                                               ; preds = %44
  store i32 4, ptr %10, align 4
  br label %55

49:                                               ; preds = %44
  %50 = load i32, ptr %9, align 4
  %51 = icmp eq i32 %50, 1
  br i1 %51, label %52, label %53

52:                                               ; preds = %49
  call void @llvm.debugtrap()
  br label %53

53:                                               ; preds = %52, %49
  br label %54

54:                                               ; preds = %53
  store i32 5, ptr %10, align 4
  br label %55

55:                                               ; preds = %54, %48
  call void @llvm.lifetime.end.p0(i64 4, ptr %9) #6
  %56 = load i32, ptr %10, align 4
  switch i32 %56, label %120 [
    i32 4, label %44
    i32 5, label %57
  ]

57:                                               ; preds = %55
  br label %58

58:                                               ; preds = %57
  br label %119

59:                                               ; preds = %37
  %60 = load ptr, ptr %6, align 8
  %61 = getelementptr inbounds nuw %struct.SDL_GPUTransferBufferLocation, ptr %60, i32 0, i32 0
  %62 = load ptr, ptr %61, align 8
  %63 = icmp eq ptr %62, null
  br i1 %63, label %64, label %81

64:                                               ; preds = %59
  br label %65

65:                                               ; preds = %64
  br label %66

66:                                               ; preds = %65, %77
  call void @llvm.lifetime.start.p0(i64 4, ptr %11) #6
  %67 = call i32 @SDL_ReportAssertion_REAL(ptr noundef @SDL_UploadToGPUBuffer_REAL.sdl_assert_data.297, ptr noundef @__func__.SDL_UploadToGPUBuffer_REAL, ptr noundef @.str.8, i32 noundef 2508)
  store i32 %67, ptr %11, align 4
  %68 = load i32, ptr %11, align 4
  %69 = icmp eq i32 %68, 0
  br i1 %69, label %70, label %71

70:                                               ; preds = %66
  store i32 8, ptr %10, align 4
  br label %77

71:                                               ; preds = %66
  %72 = load i32, ptr %11, align 4
  %73 = icmp eq i32 %72, 1
  br i1 %73, label %74, label %75

74:                                               ; preds = %71
  call void @llvm.debugtrap()
  br label %75

75:                                               ; preds = %74, %71
  br label %76

76:                                               ; preds = %75
  store i32 9, ptr %10, align 4
  br label %77

77:                                               ; preds = %76, %70
  call void @llvm.lifetime.end.p0(i64 4, ptr %11) #6
  %78 = load i32, ptr %10, align 4
  switch i32 %78, label %120 [
    i32 8, label %66
    i32 9, label %79
  ]

79:                                               ; preds = %77
  br label %80

80:                                               ; preds = %79
  br label %119

81:                                               ; preds = %59
  %82 = load ptr, ptr %7, align 8
  %83 = getelementptr inbounds nuw %struct.SDL_GPUBufferRegion, ptr %82, i32 0, i32 0
  %84 = load ptr, ptr %83, align 8
  %85 = icmp eq ptr %84, null
  br i1 %85, label %86, label %103

86:                                               ; preds = %81
  br label %87

87:                                               ; preds = %86
  br label %88

88:                                               ; preds = %87, %99
  call void @llvm.lifetime.start.p0(i64 4, ptr %12) #6
  %89 = call i32 @SDL_ReportAssertion_REAL(ptr noundef @SDL_UploadToGPUBuffer_REAL.sdl_assert_data.299, ptr noundef @__func__.SDL_UploadToGPUBuffer_REAL, ptr noundef @.str.8, i32 noundef 2512)
  store i32 %89, ptr %12, align 4
  %90 = load i32, ptr %12, align 4
  %91 = icmp eq i32 %90, 0
  br i1 %91, label %92, label %93

92:                                               ; preds = %88
  store i32 12, ptr %10, align 4
  br label %99

93:                                               ; preds = %88
  %94 = load i32, ptr %12, align 4
  %95 = icmp eq i32 %94, 1
  br i1 %95, label %96, label %97

96:                                               ; preds = %93
  call void @llvm.debugtrap()
  br label %97

97:                                               ; preds = %96, %93
  br label %98

98:                                               ; preds = %97
  store i32 13, ptr %10, align 4
  br label %99

99:                                               ; preds = %98, %92
  call void @llvm.lifetime.end.p0(i64 4, ptr %12) #6
  %100 = load i32, ptr %10, align 4
  switch i32 %100, label %120 [
    i32 12, label %88
    i32 13, label %101
  ]

101:                                              ; preds = %99
  br label %102

102:                                              ; preds = %101
  br label %119

103:                                              ; preds = %81
  br label %104

104:                                              ; preds = %103, %28
  %105 = load ptr, ptr %5, align 8
  %106 = getelementptr inbounds nuw %struct.Pass, ptr %105, i32 0, i32 0
  %107 = load ptr, ptr %106, align 8
  %108 = getelementptr inbounds nuw %struct.CommandBufferCommonHeader, ptr %107, i32 0, i32 0
  %109 = load ptr, ptr %108, align 8
  %110 = getelementptr inbounds nuw %struct.SDL_GPUDevice, ptr %109, i32 0, i32 55
  %111 = load ptr, ptr %110, align 8
  %112 = load ptr, ptr %5, align 8
  %113 = getelementptr inbounds nuw %struct.Pass, ptr %112, i32 0, i32 0
  %114 = load ptr, ptr %113, align 8
  %115 = load ptr, ptr %6, align 8
  %116 = load ptr, ptr %7, align 8
  %117 = load i8, ptr %8, align 1, !range !5, !noundef !6
  %118 = trunc i8 %117 to i1
  call void %111(ptr noundef %114, ptr noundef %115, ptr noundef %116, i1 noundef zeroext %118)
  br label %119

119:                                              ; preds = %104, %102, %80, %58, %26, %21, %16
  ret void

120:                                              ; preds = %99, %77, %55
  unreachable
}