; Function Attrs: nounwind uwtable
define hidden void @SDL_UploadToGPUBuffer_REAL(ptr noundef readonly captures(address_is_null) %0, ptr noundef %1, ptr noundef %2, i1 noundef zeroext %3) local_unnamed_addr #0 {
  %5 = icmp eq ptr %0, null
  br i1 %5, label %6, label %8

6:                                                ; preds = %4
  %7 = tail call zeroext i1 (ptr, ...) @SDL_SetError_REAL(ptr noundef nonnull @.str.4, ptr noundef nonnull @.str.286) #7
  br label %.thread

8:                                                ; preds = %4
  %9 = icmp eq ptr %1, null
  br i1 %9, label %10, label %12

10:                                               ; preds = %8
  %11 = tail call zeroext i1 (ptr, ...) @SDL_SetError_REAL(ptr noundef nonnull @.str.4, ptr noundef nonnull @.str.287) #7
  br label %.thread

12:                                               ; preds = %8
  %13 = icmp eq ptr %2, null
  br i1 %13, label %14, label %16

14:                                               ; preds = %12
  %15 = tail call zeroext i1 (ptr, ...) @SDL_SetError_REAL(ptr noundef nonnull @.str.4, ptr noundef nonnull @.str.288) #7
  br label %.thread

16:                                               ; preds = %12
  %17 = load ptr, ptr %0, align 8
  %18 = load ptr, ptr %17, align 8
  %19 = getelementptr inbounds nuw i8, ptr %18, i64 684
  %20 = load i8, ptr %19, align 4, !range !5, !noundef !6
  %21 = trunc nuw i8 %20 to i1
  br i1 %21, label %22, label %38

22:                                               ; preds = %16
  %23 = getelementptr inbounds nuw i8, ptr %0, i64 8
  %24 = load i8, ptr %23, align 8, !range !5, !noundef !6
  %25 = trunc nuw i8 %24 to i1
  br i1 %25, label %28, label %.preheader43

.preheader43:                                     ; preds = %22, %.preheader43
  %26 = tail call i32 @SDL_ReportAssertion_REAL(ptr noundef nonnull @SDL_UploadToGPUBuffer_REAL.sdl_assert_data, ptr noundef nonnull @__func__.SDL_UploadToGPUBuffer_REAL, ptr noundef nonnull @.str.8, i32 noundef 2506) #7
  switch i32 %26, label %.thread [
    i32 0, label %.preheader43
    i32 1, label %27
  ]

27:                                               ; preds = %.preheader43
  tail call void @llvm.debugtrap()
  br label %.thread

28:                                               ; preds = %22
  %29 = load ptr, ptr %1, align 8
  %30 = icmp eq ptr %29, null
  br i1 %30, label %.preheader, label %33

.preheader:                                       ; preds = %28, %.preheader
  %31 = tail call i32 @SDL_ReportAssertion_REAL(ptr noundef nonnull @SDL_UploadToGPUBuffer_REAL.sdl_assert_data.297, ptr noundef nonnull @__func__.SDL_UploadToGPUBuffer_REAL, ptr noundef nonnull @.str.8, i32 noundef 2508) #7
  switch i32 %31, label %.thread [
    i32 0, label %.preheader
    i32 1, label %32
  ]

32:                                               ; preds = %.preheader
  tail call void @llvm.debugtrap()
  br label %.thread

33:                                               ; preds = %28
  %34 = load ptr, ptr %2, align 8
  %35 = icmp eq ptr %34, null
  br i1 %35, label %.preheader41, label %38

.preheader41:                                     ; preds = %33, %.preheader41
  %36 = tail call i32 @SDL_ReportAssertion_REAL(ptr noundef nonnull @SDL_UploadToGPUBuffer_REAL.sdl_assert_data.299, ptr noundef nonnull @__func__.SDL_UploadToGPUBuffer_REAL, ptr noundef nonnull @.str.8, i32 noundef 2512) #7
  switch i32 %36, label %.thread [
    i32 0, label %.preheader41
    i32 1, label %37
  ]

37:                                               ; preds = %.preheader41
  tail call void @llvm.debugtrap()
  br label %.thread

38:                                               ; preds = %33, %16
  %39 = getelementptr inbounds nuw i8, ptr %18, i64 440
  %40 = load ptr, ptr %39, align 8
  tail call void %40(ptr noundef nonnull %17, ptr noundef nonnull %1, ptr noundef nonnull %2, i1 noundef zeroext %3) #7
  br label %.thread

.thread:                                          ; preds = %.preheader43, %.preheader41, %.preheader, %37, %32, %27, %38, %14, %10, %6
  ret void
}